; Function Attrs: mustprogress nounwind uwtable
define internal void @"_ZNSt17_Function_handlerIFvRjEZN3spv10spirvbin_t11mapFnBodiesEvE3$_2E9_M_invokeERKSt9_Any_dataS0_"(ptr nocapture noundef nonnull readonly align 8 dereferenceable(16) %0, ptr nocapture noundef nonnull readonly align 4 dereferenceable(4) %1) #0 align 2 {
  %3 = alloca i32, align 4
  %.val = load ptr, ptr %0, align 8
  call void @llvm.lifetime.start.p0(i64 4, ptr nonnull %3)
  %4 = getelementptr inbounds i8, ptr %.val, i64 32
  %5 = load ptr, ptr %4, align 8
  %6 = load ptr, ptr %.val, align 8
  %7 = load i32, ptr %6, align 4
  %.not.i.i.i = icmp eq i32 %7, 0
  br i1 %.not.i.i.i, label %"_ZSt10__invoke_rIvRZN3spv10spirvbin_t11mapFnBodiesEvE3$_2JRjEENSt9enable_ifIX16is_invocable_r_vIT_T0_DpT1_EES6_E4typeEOS7_DpOS8_.exit", label %8

8:                                                ; preds = %2
  %9 = getelementptr inbounds i8, ptr %.val, i64 8
  %10 = load ptr, ptr %9, align 8
  %11 = load i32, ptr %10, align 4
  %12 = add nsw i32 %11, 1
  store i32 %12, ptr %10, align 4
  %13 = getelementptr inbounds i8, ptr %.val, i64 16
  %14 = load ptr, ptr %13, align 8
  %15 = load ptr, ptr %.val, align 8
  %16 = load i32, ptr %15, align 4
  store i32 %16, ptr %3, align 4
  %17 = call noundef nonnull align 4 dereferenceable(4) ptr @_ZNSt8__detail9_Map_baseIiSt4pairIKiiESaIS3_ENS_10_Select1stESt8equal_toIiESt4hashIiENS_18_Mod_range_hashingENS_20_Default_ranged_hashENS_20_Prime_rehash_policyENS_17_Hashtable_traitsILb0ELb0ELb1EEELb1EEixEOi(ptr noundef nonnull align 1 dereferenceable(1) %14, ptr noundef nonnull align 4 dereferenceable(4) %3)
  %18 = load i32, ptr %1, align 4
  %19 = getelementptr inbounds i8, ptr %5, i64 408
  %20 = zext i32 %18 to i64
  %21 = load ptr, ptr %19, align 8
  %22 = getelementptr inbounds i32, ptr %21, i64 %20
  %23 = load i32, ptr %22, align 4
  %24 = icmp eq i32 %23, -10000
  br i1 %24, label %25, label %"_ZSt10__invoke_rIvRZN3spv10spirvbin_t11mapFnBodiesEvE3$_2JRjEENSt9enable_ifIX16is_invocable_r_vIT_T0_DpT1_EES6_E4typeEOS7_DpOS8_.exit"

25:                                               ; preds = %8
  %26 = getelementptr inbounds i8, ptr %.val, i64 24
  %27 = load ptr, ptr %26, align 8
  %28 = load i32, ptr %27, align 4
  %29 = load ptr, ptr %9, align 8
  %30 = load i32, ptr %29, align 4
  %31 = load ptr, ptr %.val, align 8
  %32 = load i32, ptr %31, align 4
  %33 = load i32, ptr %17, align 4
  %34 = mul i32 %32, 50047
  %35 = mul i32 %34, %33
  %36 = mul i32 %28, 117
  %37 = add i32 %30, %36
  %38 = add i32 %37, %35
  %39 = urem i32 %38, 19071
  %40 = add nuw nsw i32 %39, 6203
  %41 = getelementptr inbounds i8, ptr %5, i64 112
  %42 = getelementptr inbounds i8, ptr %5, i64 120
  %43 = load ptr, ptr %42, align 8
  %44 = load ptr, ptr %41, align 8
  %45 = ptrtoint ptr %43 to i64
  %46 = ptrtoint ptr %44 to i64
  %47 = sub i64 %45, %46
  %48 = shl i64 %47, 2
  %49 = zext nneg i32 %40 to i64
  %50 = icmp ugt i64 %48, %49
  br i1 %50, label %_ZNK3spv10spirvbin_t13isNewIdMappedEj.exit.i.i.i.i, label %_ZN3spv10spirvbin_t12nextUnusedIdEj.exit.i.i.i

_ZNK3spv10spirvbin_t13isNewIdMappedEj.exit.i.i.i.i: ; preds = %25, %59
  %.03.i.i.i.i = phi i32 [ %60, %59 ], [ %40, %25 ]
  %51 = lshr i32 %.03.i.i.i.i, 5
  %52 = zext nneg i32 %51 to i64
  %53 = getelementptr inbounds i64, ptr %44, i64 %52
  %54 = load i64, ptr %53, align 8
  %55 = and i32 %.03.i.i.i.i, 31
  %56 = zext nneg i32 %55 to i64
  %57 = shl nuw nsw i64 1, %56
  %58 = and i64 %57, %54
  %.not.i.i.i.i = icmp eq i64 %58, 0
  br i1 %.not.i.i.i.i, label %_ZN3spv10spirvbin_t12nextUnusedIdEj.exit.i.i.i, label %59

59:                                               ; preds = %_ZNK3spv10spirvbin_t13isNewIdMappedEj.exit.i.i.i.i
  %60 = add i32 %.03.i.i.i.i, 1
  %61 = zext i32 %60 to i64
  %62 = icmp ugt i64 %48, %61
  br i1 %62, label %_ZNK3spv10spirvbin_t13isNewIdMappedEj.exit.i.i.i.i, label %_ZN3spv10spirvbin_t12nextUnusedIdEj.exit.i.i.i, !llvm.loop !19

_ZN3spv10spirvbin_t12nextUnusedIdEj.exit.i.i.i:   ; preds = %59, %_ZNK3spv10spirvbin_t13isNewIdMappedEj.exit.i.i.i.i, %25
  %.0.lcssa.i.i.i.i = phi i32 [ %40, %25 ], [ %60, %59 ], [ %.03.i.i.i.i, %_ZNK3spv10spirvbin_t13isNewIdMappedEj.exit.i.i.i.i ]
  %63 = call noundef i32 @_ZN3spv10spirvbin_t7localIdEjj(ptr noundef nonnull align 8 dereferenceable(473) %5, i32 noundef %18, i32 noundef %.0.lcssa.i.i.i.i)
  br label %"_ZSt10__invoke_rIvRZN3spv10spirvbin_t11mapFnBodiesEvE3$_2JRjEENSt9enable_ifIX16is_invocable_r_vIT_T0_DpT1_EES6_E4typeEOS7_DpOS8_.exit"

"_ZSt10__invoke_rIvRZN3spv10spirvbin_t11mapFnBodiesEvE3$_2JRjEENSt9enable_ifIX16is_invocable_r_vIT_T0_DpT1_EES6_E4typeEOS7_DpOS8_.exit": ; preds = %2, %8, %_ZN3spv10spirvbin_t12nextUnusedIdEj.exit.i.i.i
  call void @llvm.lifetime.end.p0(i64 4, ptr nonnull %3)
  ret void
}